target datalayout = "e-m:e-p270:32:32-p271:32:32-p272:64:64-i64:64-i128:128-f80:128-n8:16:32:64-S128"
target triple = "x86_64-pc-linux-gnu"

%struct.H5SM_index_header_t = type { i32, i64, i64, i64, i64, i32, i64, i64, i64 }
%struct.H5SM_list_cache_ud_t = type { ptr, ptr }

@H5SM_init_g = external global i8, align 1
@H5_libterm_g = external global i8, align 1
@.str.2 = private unnamed_addr constant [103 x i8] c"generated/home/dtcxzyw/WorkSpace/Projects/compilers/llvm-opt-benchmark/bench/hdf5/hdf5/src/H5SMcache.c\00", align 1
@H5E_SOHM_g = external global i64, align 8
@H5E_CANTGET_g = external global i64, align 8
@.str.3 = private unnamed_addr constant [20 x i8] c"can't get checksums\00", align 1
@__func__.H5SM__cache_list_verify_chksum = private unnamed_addr constant [31 x i8] c"H5SM__cache_list_verify_chksum\00", align 1

; Function Attrs: nounwind uwtable
define internal i32 @H5SM__cache_list_verify_chksum(ptr noundef %0, i64 noundef %1, ptr noundef %2) #0 {
  %4 = alloca ptr, align 8
  %5 = alloca i64, align 8
  %6 = alloca ptr, align 8
  %7 = alloca ptr, align 8
  %8 = alloca ptr, align 8
  %9 = alloca i64, align 8
  %10 = alloca i32, align 4
  %11 = alloca i32, align 4
  %12 = alloca i32, align 4
  %13 = alloca i8, align 1
  store ptr %0, ptr %4, align 8, !tbaa !3
  store i64 %1, ptr %5, align 8, !tbaa !18
  store ptr %2, ptr %6, align 8, !tbaa !3
  call void @llvm.lifetime.start.p0(i64 8, ptr %7) #7
  %14 = load ptr, ptr %4, align 8, !tbaa !3
  store ptr %14, ptr %7, align 8, !tbaa !20
  call void @llvm.lifetime.start.p0(i64 8, ptr %8) #7
  %15 = load ptr, ptr %6, align 8, !tbaa !3
  store ptr %15, ptr %8, align 8, !tbaa !53
  call void @llvm.lifetime.start.p0(i64 8, ptr %9) #7
  call void @llvm.lifetime.start.p0(i64 4, ptr %10) #7
  call void @llvm.lifetime.start.p0(i64 4, ptr %11) #7
  call void @llvm.lifetime.start.p0(i64 4, ptr %12) #7
  store i32 1, ptr %12, align 4, !tbaa !22
  call void @llvm.lifetime.start.p0(i64 1, ptr %13) #7
  store i8 0, ptr %13, align 1, !tbaa !11
  %16 = load i8, ptr @H5SM_init_g, align 1, !tbaa !11, !range !13, !noundef !14
  %17 = trunc i8 %16 to i1
  br i1 %17, label %22, label %18

18:                                               ; preds = %3
  %19 = load i8, ptr @H5_libterm_g, align 1, !tbaa !11, !range !13, !noundef !14
  %20 = trunc i8 %19 to i1
  %21 = xor i1 %20, true
  br label %22

22:                                               ; preds = %18, %3
  %23 = phi i1 [ true, %3 ], [ %21, %18 ]
  %24 = xor i1 %23, true
  %25 = xor i1 %24, true
  %26 = zext i1 %25 to i32
  %27 = sext i32 %26 to i64
  %28 = call i64 @llvm.expect.i64(i64 %27, i64 1)
  %29 = icmp ne i64 %28, 0
  br i1 %29, label %30, label %88

30:                                               ; preds = %22
  %31 = load ptr, ptr %8, align 8, !tbaa !53
  %32 = getelementptr inbounds nuw %struct.H5SM_list_cache_ud_t, ptr %31, i32 0, i32 0
  %33 = load ptr, ptr %32, align 8, !tbaa !57
  %34 = call zeroext i8 @H5F_sizeof_addr(ptr noundef %33)
  %35 = zext i8 %34 to i32
  %36 = add i32 4, %35
  %37 = zext i32 %36 to i64
  %38 = icmp ugt i64 12, %37
  br i1 %38, label %39, label %40

39:                                               ; preds = %30
  br label %48

40:                                               ; preds = %30
  %41 = load ptr, ptr %8, align 8, !tbaa !53
  %42 = getelementptr inbounds nuw %struct.H5SM_list_cache_ud_t, ptr %41, i32 0, i32 0
  %43 = load ptr, ptr %42, align 8, !tbaa !57
  %44 = call zeroext i8 @H5F_sizeof_addr(ptr noundef %43)
  %45 = zext i8 %44 to i32
  %46 = add i32 4, %45
  %47 = zext i32 %46 to i64
  br label %48

48:                                               ; preds = %40, %39
  %49 = phi i64 [ 12, %39 ], [ %47, %40 ]
  %50 = add i64 5, %49
  %51 = load ptr, ptr %8, align 8, !tbaa !53
  %52 = getelementptr inbounds nuw %struct.H5SM_list_cache_ud_t, ptr %51, i32 0, i32 1
  %53 = load ptr, ptr %52, align 8, !tbaa !55
  %54 = getelementptr inbounds nuw %struct.H5SM_index_header_t, ptr %53, i32 0, i32 4
  %55 = load i64, ptr %54, align 8, !tbaa !46
  %56 = mul i64 %50, %55
  %57 = add i64 8, %56
  store i64 %57, ptr %9, align 8, !tbaa !18
  %58 = load ptr, ptr %7, align 8, !tbaa !20
  %59 = load i64, ptr %9, align 8, !tbaa !18
  %60 = call i32 @H5F_get_checksums(ptr noundef %58, i64 noundef %59, ptr noundef %10, ptr noundef %11)
  %61 = icmp slt i32 %60, 0
  br i1 %61, label %62, label %81

62:                                               ; preds = %48
  br label %63

63:                                               ; preds = %62
  br label %64

64:                                               ; preds = %63
  br label %65

65:                                               ; preds = %64
  %66 = load i64, ptr @H5E_SOHM_g, align 8, !tbaa !18
  %67 = load i64, ptr @H5E_CANTGET_g, align 8, !tbaa !18
  %68 = call i32 (ptr, ptr, i32, i64, i64, ptr, ...) @H5E_printf_stack(ptr noundef @.str.2, ptr noundef @__func__.H5SM__cache_list_verify_chksum, i32 noundef 497, i64 noundef %66, i64 noundef %67, ptr noundef @.str.3)
  br label %69

69:                                               ; preds = %65
  br label %70

70:                                               ; preds = %69
  store i8 1, ptr %13, align 1, !tbaa !11
  %71 = load i8, ptr %13, align 1, !tbaa !11, !range !13, !noundef !14
  %72 = trunc i8 %71 to i1
  %73 = zext i1 %72 to i8
  store i8 %73, ptr %13, align 1, !tbaa !11
  br label %74

74:                                               ; preds = %70
  br label %75

75:                                               ; preds = %74
  br label %76

76:                                               ; preds = %75
  store i32 -1, ptr %12, align 4, !tbaa !22
  br label %87

77:                                               ; No predecessors!
  br label %78

78:                                               ; preds = %77
  br label %79

79:                                               ; preds = %78
  br label %80

80:                                               ; preds = %79
  br label %81

81:                                               ; preds = %80, %48
  %82 = load i32, ptr %10, align 4, !tbaa !22
  %83 = load i32, ptr %11, align 4, !tbaa !22
  %84 = icmp ne i32 %82, %83
  br i1 %84, label %85, label %86

85:                                               ; preds = %81
  store i32 0, ptr %12, align 4, !tbaa !22
  br label %86

86:                                               ; preds = %85, %81
  br label %87

87:                                               ; preds = %86, %76
  br label %88

88:                                               ; preds = %87, %22
  %89 = load i32, ptr %12, align 4, !tbaa !22
  call void @llvm.lifetime.end.p0(i64 1, ptr %13) #7
  call void @llvm.lifetime.end.p0(i64 4, ptr %12) #7
  call void @llvm.lifetime.end.p0(i64 4, ptr %11) #7
  call void @llvm.lifetime.end.p0(i64 4, ptr %10) #7
  call void @llvm.lifetime.end.p0(i64 8, ptr %9) #7
  call void @llvm.lifetime.end.p0(i64 8, ptr %8) #7
  call void @llvm.lifetime.end.p0(i64 8, ptr %7) #7
  ret i32 %89
}