; Function Attrs: nounwind uwtable
define internal range(i32 -1, 2) i32 @H5SM__cache_list_verify_chksum(ptr noundef %0, i64 %1, ptr noundef readonly captures(none) %2) #0 {
  %4 = alloca i32, align 4
  %5 = alloca i32, align 4
  call void @llvm.lifetime.start.p0(i64 4, ptr nonnull %4) #6
  call void @llvm.lifetime.start.p0(i64 4, ptr nonnull %5) #6
  %6 = load i8, ptr @H5SM_init_g, align 1, !tbaa !3, !range !7, !noundef !8
  %7 = trunc nuw i8 %6 to i1
  %8 = load i8, ptr @H5_libterm_g, align 1, !range !7
  %9 = trunc nuw i8 %8 to i1
  %10 = xor i1 %9, true
  %11 = select i1 %7, i1 true, i1 %10
  br i1 %11, label %12, label %38, !prof !9

12:                                               ; preds = %3
  %13 = load ptr, ptr %2, align 8, !tbaa !47
  %14 = tail call zeroext i8 @H5F_sizeof_addr(ptr noundef %13) #6
  %15 = icmp ult i8 %14, 8
  br i1 %15, label %21, label %16

16:                                               ; preds = %12
  %17 = load ptr, ptr %2, align 8, !tbaa !47
  %18 = tail call zeroext i8 @H5F_sizeof_addr(ptr noundef %17) #6
  %19 = zext i8 %18 to i64
  %20 = add nuw nsw i64 %19, 9
  br label %21

21:                                               ; preds = %12, %16
  %22 = phi i64 [ %20, %16 ], [ 17, %12 ]
  %23 = getelementptr inbounds nuw i8, ptr %2, i64 8
  %24 = load ptr, ptr %23, align 8, !tbaa !45
  %25 = getelementptr inbounds nuw i8, ptr %24, i64 32
  %26 = load i64, ptr %25, align 8, !tbaa !38
  %27 = mul i64 %26, %22
  %28 = add i64 %27, 8
  %29 = call i32 @H5F_get_checksums(ptr noundef %0, i64 noundef %28, ptr noundef nonnull %4, ptr noundef nonnull %5) #6
  %30 = icmp slt i32 %29, 0
  br i1 %30, label %31, label %35

31:                                               ; preds = %21
  %32 = load i64, ptr @H5E_SOHM_g, align 8, !tbaa !14
  %33 = load i64, ptr @H5E_CANTGET_g, align 8, !tbaa !14
  %34 = call i32 (ptr, ptr, i32, i64, i64, ptr, ...) @H5E_printf_stack(ptr noundef nonnull @.str.2, ptr noundef nonnull @__func__.H5SM__cache_list_verify_chksum, i32 noundef 497, i64 noundef %32, i64 noundef %33, ptr noundef nonnull @.str.3) #6
  br label %38

35:                                               ; preds = %21
  %36 = load i32, ptr %4, align 4, !tbaa !16
  %37 = load i32, ptr %5, align 4, !tbaa !16
  %.not = icmp eq i32 %36, %37
  %spec.select = zext i1 %.not to i32
  br label %38

38:                                               ; preds = %35, %31, %3
  %.0 = phi i32 [ -1, %31 ], [ 1, %3 ], [ %spec.select, %35 ]
  call void @llvm.lifetime.end.p0(i64 4, ptr nonnull %5) #6
  call void @llvm.lifetime.end.p0(i64 4, ptr nonnull %4) #6
  ret i32 %.0
}